target datalayout = "e-m:e-p270:32:32-p271:32:32-p272:64:64-i64:64-i128:128-f80:128-n8:16:32:64-S128"
target triple = "x86_64-unknown-linux-gnu"

%struct.QTailQLink = type { ptr, ptr }
%struct.BlockDriverState = type { i32, i8, i8, i8, i8, i8, ptr, ptr, ptr, %struct.anon.0, i8, [4096 x i8], [4096 x i8], [4096 x i8], [16 x i8], ptr, [4096 x i8], %struct.BlockLimits, i32, i32, i32, i32, [32 x i8], %union.anon.1, %union.anon.2, %union.anon.3, i32, [16 x %struct.anon.4], ptr, %struct.anon.5, ptr, ptr, %struct.anon.6, ptr, ptr, i32, ptr, i64, i64, %struct.QemuMutex, %struct.anon.7, %struct.Stat64, i32, i32, i32, i32, i32, i32, %struct.QemuMutex, %struct.anon.8, %struct.CoQueue, i8, i32, i8, %struct.CoMutex, ptr, ptr }
%struct.anon.0 = type { ptr }
%struct.BlockLimits = type { i32, i64, i32, i64, i32, i32, i32, i64, i32, i64, i64, i32, i8, i32, i32, i32, i32, i32, i32, i32 }
%union.anon.1 = type { %struct.QTailQLink }
%union.anon.2 = type { %struct.QTailQLink }
%union.anon.3 = type { %struct.QTailQLink }
%struct.anon.4 = type { ptr }
%struct.anon.5 = type { ptr }
%struct.anon.6 = type { ptr }
%struct.anon.7 = type { ptr }
%struct.Stat64 = type { i64 }
%struct.QemuMutex = type { %union.pthread_mutex_t, i8 }
%union.pthread_mutex_t = type { %struct.__pthread_mutex_s }
%struct.__pthread_mutex_s = type { i32, i32, i32, i32, i32, i16, i16, %struct.__pthread_internal_list }
%struct.__pthread_internal_list = type { ptr, ptr }
%struct.anon.8 = type { ptr }
%struct.CoQueue = type { %struct.anon.9 }
%struct.anon.9 = type { ptr, ptr }
%struct.CoMutex = type { i32, ptr, %struct.anon.10, %struct.anon.10, i32, i32, ptr }
%struct.anon.10 = type { ptr }
%struct.BDRVVmdkState = type { %struct.CoMutex, i64, i8, i8, i32, i32, i32, ptr, ptr, ptr }
%struct.VmdkExtent = type { ptr, i8, i8, i8, i8, i8, i64, i64, i32, i32, i64, i64, i64, i64, i64, ptr, ptr, i32, i32, i32, ptr, [16 x i32], [16 x i32], i64, i64, ptr }
%struct.BdrvChild = type { ptr, ptr, ptr, i32, ptr, i64, i64, i8, i8, %struct.anon.11, %struct.anon.12 }
%struct.anon.11 = type { ptr, ptr }
%struct.anon.12 = type { ptr, ptr }

@.str.24 = private unnamed_addr constant [21 x i8] c"../qemu/block/vmdk.c\00", align 1
@__func__.vmdk_add_extent = private unnamed_addr constant [16 x i8] c"vmdk_add_extent\00", align 1
@.str.35 = private unnamed_addr constant [42 x i8] c"Invalid granularity, image may be corrupt\00", align 1
@.str.36 = private unnamed_addr constant [16 x i8] c"L1 size too big\00", align 1

; Function Attrs: nounwind sspstrong uwtable
define internal i32 @vmdk_add_extent(ptr noundef %bs, ptr noundef %file, i1 noundef zeroext %flat, i64 noundef %sectors, i64 noundef %l1_offset, i64 noundef %l1_backup_offset, i32 noundef %l1_size, i32 noundef %l2_size, i64 noundef %cluster_sectors, ptr noundef %new_extent, ptr noundef %errp) #0 {
entry:
  %retval = alloca i32, align 4
  %bs.addr = alloca ptr, align 8
  %file.addr = alloca ptr, align 8
  %flat.addr = alloca i8, align 1
  %sectors.addr = alloca i64, align 8
  %l1_offset.addr = alloca i64, align 8
  %l1_backup_offset.addr = alloca i64, align 8
  %l1_size.addr = alloca i32, align 4
  %l2_size.addr = alloca i32, align 4
  %cluster_sectors.addr = alloca i64, align 8
  %new_extent.addr = alloca ptr, align 8
  %errp.addr = alloca ptr, align 8
  %extent = alloca ptr, align 8
  %s = alloca ptr, align 8
  %nb_sectors = alloca i64, align 8
  store ptr %bs, ptr %bs.addr, align 8
  store ptr %file, ptr %file.addr, align 8
  %frombool = zext i1 %flat to i8
  store i8 %frombool, ptr %flat.addr, align 1
  store i64 %sectors, ptr %sectors.addr, align 8
  store i64 %l1_offset, ptr %l1_offset.addr, align 8
  store i64 %l1_backup_offset, ptr %l1_backup_offset.addr, align 8
  store i32 %l1_size, ptr %l1_size.addr, align 4
  store i32 %l2_size, ptr %l2_size.addr, align 4
  store i64 %cluster_sectors, ptr %cluster_sectors.addr, align 8
  store ptr %new_extent, ptr %new_extent.addr, align 8
  store ptr %errp, ptr %errp.addr, align 8
  %0 = load ptr, ptr %bs.addr, align 8
  %opaque = getelementptr inbounds %struct.BlockDriverState, ptr %0, i32 0, i32 7
  %1 = load ptr, ptr %opaque, align 8
  store ptr %1, ptr %s, align 8
  %2 = load i64, ptr %cluster_sectors.addr, align 8
  %cmp = icmp ugt i64 %2, 2097152
  br i1 %cmp, label %if.then, label %if.end

if.then:                                          ; preds = %entry
  %3 = load ptr, ptr %errp.addr, align 8
  call void (ptr, ptr, i32, ptr, ptr, ...) @error_setg_internal(ptr noundef %3, ptr noundef @.str.24, i32 noundef 543, ptr noundef @__func__.vmdk_add_extent, ptr noundef @.str.35)
  store i32 -27, ptr %retval, align 4
  br label %return

if.end:                                           ; preds = %entry
  %4 = load i32, ptr %l1_size.addr, align 4
  %cmp1 = icmp ugt i32 %4, 33554432
  br i1 %cmp1, label %if.then2, label %if.end3

if.then2:                                         ; preds = %if.end
  %5 = load ptr, ptr %errp.addr, align 8
  call void (ptr, ptr, i32, ptr, ptr, ...) @error_setg_internal(ptr noundef %5, ptr noundef @.str.24, i32 noundef 562, ptr noundef @__func__.vmdk_add_extent, ptr noundef @.str.36)
  store i32 -27, ptr %retval, align 4
  br label %return

if.end3:                                          ; preds = %if.end
  %6 = load ptr, ptr %file.addr, align 8
  %bs4 = getelementptr inbounds %struct.BdrvChild, ptr %6, i32 0, i32 0
  %7 = load ptr, ptr %bs4, align 8
  %call = call i64 @bdrv_nb_sectors(ptr noundef %7)
  store i64 %call, ptr %nb_sectors, align 8
  %8 = load i64, ptr %nb_sectors, align 8
  %cmp5 = icmp slt i64 %8, 0
  br i1 %cmp5, label %if.then6, label %if.end7

if.then6:                                         ; preds = %if.end3
  %9 = load i64, ptr %nb_sectors, align 8
  %conv = trunc i64 %9 to i32
  store i32 %conv, ptr %retval, align 4
  br label %return

if.end7:                                          ; preds = %if.end3
  %10 = load ptr, ptr %s, align 8
  %extents = getelementptr inbounds %struct.BDRVVmdkState, ptr %10, i32 0, i32 7
  %11 = load ptr, ptr %extents, align 8
  %12 = load ptr, ptr %s, align 8
  %num_extents = getelementptr inbounds %struct.BDRVVmdkState, ptr %12, i32 0, i32 6
  %13 = load i32, ptr %num_extents, align 4
  %add = add i32 %13, 1
  %conv8 = sext i32 %add to i64
  %call9 = call ptr @g_realloc_n(ptr noundef %11, i64 noundef %conv8, i64 noundef 272)
  %14 = load ptr, ptr %s, align 8
  %extents10 = getelementptr inbounds %struct.BDRVVmdkState, ptr %14, i32 0, i32 7
  store ptr %call9, ptr %extents10, align 8
  %15 = load ptr, ptr %s, align 8
  %extents11 = getelementptr inbounds %struct.BDRVVmdkState, ptr %15, i32 0, i32 7
  %16 = load ptr, ptr %extents11, align 8
  %17 = load ptr, ptr %s, align 8
  %num_extents12 = getelementptr inbounds %struct.BDRVVmdkState, ptr %17, i32 0, i32 6
  %18 = load i32, ptr %num_extents12, align 4
  %idxprom = sext i32 %18 to i64
  %arrayidx = getelementptr %struct.VmdkExtent, ptr %16, i64 %idxprom
  store ptr %arrayidx, ptr %extent, align 8
  %19 = load ptr, ptr %s, align 8
  %num_extents13 = getelementptr inbounds %struct.BDRVVmdkState, ptr %19, i32 0, i32 6
  %20 = load i32, ptr %num_extents13, align 4
  %inc = add i32 %20, 1
  store i32 %inc, ptr %num_extents13, align 4
  %21 = load ptr, ptr %extent, align 8
  call void @llvm.memset.p0.i64(ptr align 8 %21, i8 0, i64 272, i1 false)
  %22 = load ptr, ptr %file.addr, align 8
  %23 = load ptr, ptr %extent, align 8
  %file14 = getelementptr inbounds %struct.VmdkExtent, ptr %23, i32 0, i32 0
  store ptr %22, ptr %file14, align 8
  %24 = load i8, ptr %flat.addr, align 1
  %tobool = trunc i8 %24 to i1
  %25 = load ptr, ptr %extent, align 8
  %flat15 = getelementptr inbounds %struct.VmdkExtent, ptr %25, i32 0, i32 1
  %frombool16 = zext i1 %tobool to i8
  store i8 %frombool16, ptr %flat15, align 8
  %26 = load i64, ptr %sectors.addr, align 8
  %27 = load ptr, ptr %extent, align 8
  %sectors17 = getelementptr inbounds %struct.VmdkExtent, ptr %27, i32 0, i32 10
  store i64 %26, ptr %sectors17, align 8
  %28 = load i64, ptr %l1_offset.addr, align 8
  %29 = load ptr, ptr %extent, align 8
  %l1_table_offset = getelementptr inbounds %struct.VmdkExtent, ptr %29, i32 0, i32 13
  store i64 %28, ptr %l1_table_offset, align 8
  %30 = load i64, ptr %l1_backup_offset.addr, align 8
  %31 = load ptr, ptr %extent, align 8
  %l1_backup_table_offset = getelementptr inbounds %struct.VmdkExtent, ptr %31, i32 0, i32 14
  store i64 %30, ptr %l1_backup_table_offset, align 8
  %32 = load i32, ptr %l1_size.addr, align 4
  %33 = load ptr, ptr %extent, align 8
  %l1_size18 = getelementptr inbounds %struct.VmdkExtent, ptr %33, i32 0, i32 17
  store i32 %32, ptr %l1_size18, align 8
  %34 = load i32, ptr %l2_size.addr, align 4
  %conv19 = sext i32 %34 to i64
  %35 = load i64, ptr %cluster_sectors.addr, align 8
  %mul = mul i64 %conv19, %35
  %conv20 = trunc i64 %mul to i32
  %36 = load ptr, ptr %extent, align 8
  %l1_entry_sectors = getelementptr inbounds %struct.VmdkExtent, ptr %36, i32 0, i32 18
  store i32 %conv20, ptr %l1_entry_sectors, align 4
  %37 = load i32, ptr %l2_size.addr, align 4
  %38 = load ptr, ptr %extent, align 8
  %l2_size21 = getelementptr inbounds %struct.VmdkExtent, ptr %38, i32 0, i32 19
  store i32 %37, ptr %l2_size21, align 8
  %39 = load i8, ptr %flat.addr, align 1
  %tobool22 = trunc i8 %39 to i1
  br i1 %tobool22, label %cond.true, label %cond.false

cond.true:                                        ; preds = %if.end7
  %40 = load i64, ptr %sectors.addr, align 8
  br label %cond.end

cond.false:                                       ; preds = %if.end7
  %41 = load i64, ptr %cluster_sectors.addr, align 8
  br label %cond.end

cond.end:                                         ; preds = %cond.false, %cond.true
  %cond = phi i64 [ %40, %cond.true ], [ %41, %cond.false ]
  %42 = load ptr, ptr %extent, align 8
  %cluster_sectors24 = getelementptr inbounds %struct.VmdkExtent, ptr %42, i32 0, i32 23
  store i64 %cond, ptr %cluster_sectors24, align 8
  %43 = load i64, ptr %nb_sectors, align 8
  %44 = load i64, ptr %cluster_sectors.addr, align 8
  %add25 = add i64 %43, %44
  %sub = sub i64 %add25, 1
  %45 = load i64, ptr %cluster_sectors.addr, align 8
  %sub26 = sub i64 0, %45
  %and = and i64 %sub, %sub26
  %46 = load ptr, ptr %extent, align 8
  %next_cluster_sector = getelementptr inbounds %struct.VmdkExtent, ptr %46, i32 0, i32 24
  store i64 %and, ptr %next_cluster_sector, align 8
  %47 = load ptr, ptr %extent, align 8
  %entry_size = getelementptr inbounds %struct.VmdkExtent, ptr %47, i32 0, i32 8
  store i32 4, ptr %entry_size, align 8
  %48 = load ptr, ptr %s, align 8
  %num_extents27 = getelementptr inbounds %struct.BDRVVmdkState, ptr %48, i32 0, i32 6
  %49 = load i32, ptr %num_extents27, align 4
  %cmp28 = icmp sgt i32 %49, 1
  br i1 %cmp28, label %if.then30, label %if.else

if.then30:                                        ; preds = %cond.end
  %50 = load ptr, ptr %extent, align 8
  %add.ptr = getelementptr %struct.VmdkExtent, ptr %50, i64 -1
  %end_sector = getelementptr inbounds %struct.VmdkExtent, ptr %add.ptr, i32 0, i32 11
  %51 = load i64, ptr %end_sector, align 8
  %52 = load ptr, ptr %extent, align 8
  %sectors31 = getelementptr inbounds %struct.VmdkExtent, ptr %52, i32 0, i32 10
  %53 = load i64, ptr %sectors31, align 8
  %add32 = add i64 %51, %53
  %54 = load ptr, ptr %extent, align 8
  %end_sector33 = getelementptr inbounds %struct.VmdkExtent, ptr %54, i32 0, i32 11
  store i64 %add32, ptr %end_sector33, align 8
  br label %if.end36

if.else:                                          ; preds = %cond.end
  %55 = load ptr, ptr %extent, align 8
  %sectors34 = getelementptr inbounds %struct.VmdkExtent, ptr %55, i32 0, i32 10
  %56 = load i64, ptr %sectors34, align 8
  %57 = load ptr, ptr %extent, align 8
  %end_sector35 = getelementptr inbounds %struct.VmdkExtent, ptr %57, i32 0, i32 11
  store i64 %56, ptr %end_sector35, align 8
  br label %if.end36

if.end36:                                         ; preds = %if.else, %if.then30
  %58 = load ptr, ptr %extent, align 8
  %end_sector37 = getelementptr inbounds %struct.VmdkExtent, ptr %58, i32 0, i32 11
  %59 = load i64, ptr %end_sector37, align 8
  %60 = load ptr, ptr %bs.addr, align 8
  %total_sectors = getelementptr inbounds %struct.BlockDriverState, ptr %60, i32 0, i32 37
  store i64 %59, ptr %total_sectors, align 8
  %61 = load ptr, ptr %new_extent.addr, align 8
  %tobool38 = icmp ne ptr %61, null
  br i1 %tobool38, label %if.then39, label %if.end40

if.then39:                                        ; preds = %if.end36
  %62 = load ptr, ptr %extent, align 8
  %63 = load ptr, ptr %new_extent.addr, align 8
  store ptr %62, ptr %63, align 8
  br label %if.end40

if.end40:                                         ; preds = %if.then39, %if.end36
  store i32 0, ptr %retval, align 4
  br label %return

return:                                           ; preds = %if.end40, %if.then6, %if.then2, %if.then
  %64 = load i32, ptr %retval, align 4
  ret i32 %64
}