; Function Attrs: nounwind sspstrong uwtable
define internal fastcc i32 @vmdk_add_extent(ptr noundef captures(none) %bs, ptr noundef %file, i1 noundef zeroext %flat, i64 noundef %sectors, i64 noundef %l1_offset, i64 noundef range(i64 0, -511) %l1_backup_offset, i32 noundef %l1_size, i32 noundef %l2_size, i64 noundef %cluster_sectors, ptr noundef nonnull writeonly captures(none) %new_extent, ptr noundef %errp) unnamed_addr #0 {
entry:
  %frombool = zext i1 %flat to i8
  %opaque = getelementptr inbounds nuw i8, ptr %bs, i64 24
  %0 = load ptr, ptr %opaque, align 8
  %cmp = icmp ugt i64 %cluster_sectors, 2097152
  br i1 %cmp, label %if.then, label %if.end

if.then:                                          ; preds = %entry
  tail call void (ptr, ptr, i32, ptr, ptr, ...) @error_setg_internal(ptr noundef %errp, ptr noundef nonnull @.str.24, i32 noundef 543, ptr noundef nonnull @__func__.vmdk_add_extent, ptr noundef nonnull @.str.35) #15
  br label %return

if.end:                                           ; preds = %entry
  %cmp1 = icmp ugt i32 %l1_size, 33554432
  br i1 %cmp1, label %if.then2, label %if.end3

if.then2:                                         ; preds = %if.end
  tail call void (ptr, ptr, i32, ptr, ptr, ...) @error_setg_internal(ptr noundef %errp, ptr noundef nonnull @.str.24, i32 noundef 562, ptr noundef nonnull @__func__.vmdk_add_extent, ptr noundef nonnull @.str.36) #15
  br label %return

if.end3:                                          ; preds = %if.end
  %1 = load ptr, ptr %file, align 8
  %call = tail call i64 @bdrv_nb_sectors(ptr noundef %1) #15
  %cmp5 = icmp slt i64 %call, 0
  br i1 %cmp5, label %if.then6, label %if.end7

if.then6:                                         ; preds = %if.end3
  %conv = trunc i64 %call to i32
  br label %return

if.end7:                                          ; preds = %if.end3
  %extents = getelementptr inbounds nuw i8, ptr %0, i64 72
  %2 = load ptr, ptr %extents, align 8
  %num_extents = getelementptr inbounds nuw i8, ptr %0, i64 68
  %3 = load i32, ptr %num_extents, align 4
  %add = add i32 %3, 1
  %conv8 = sext i32 %add to i64
  %call9 = tail call ptr @g_realloc_n(ptr noundef %2, i64 noundef %conv8, i64 noundef 272) #15
  store ptr %call9, ptr %extents, align 8
  %4 = load i32, ptr %num_extents, align 4
  %idxprom = sext i32 %4 to i64
  %arrayidx = getelementptr %struct.VmdkExtent, ptr %call9, i64 %idxprom
  %inc = add i32 %4, 1
  store i32 %inc, ptr %num_extents, align 4
  %5 = getelementptr inbounds nuw i8, ptr %arrayidx, i64 8
  tail call void @llvm.memset.p0.i64(ptr noundef nonnull align 8 dereferenceable(272) %5, i8 0, i64 264, i1 false)
  store ptr %file, ptr %arrayidx, align 8
  %flat15 = getelementptr inbounds nuw i8, ptr %arrayidx, i64 8
  store i8 %frombool, ptr %flat15, align 8
  %sectors17 = getelementptr inbounds nuw i8, ptr %arrayidx, i64 40
  store i64 %sectors, ptr %sectors17, align 8
  %l1_table_offset = getelementptr inbounds nuw i8, ptr %arrayidx, i64 64
  store i64 %l1_offset, ptr %l1_table_offset, align 8
  %l1_backup_table_offset = getelementptr inbounds nuw i8, ptr %arrayidx, i64 72
  store i64 %l1_backup_offset, ptr %l1_backup_table_offset, align 8
  %l1_size18 = getelementptr inbounds nuw i8, ptr %arrayidx, i64 96
  store i32 %l1_size, ptr %l1_size18, align 8
  %6 = trunc nuw i64 %cluster_sectors to i32
  %conv20 = mul i32 %l2_size, %6
  %l1_entry_sectors = getelementptr inbounds nuw i8, ptr %arrayidx, i64 100
  store i32 %conv20, ptr %l1_entry_sectors, align 4
  %l2_size21 = getelementptr inbounds nuw i8, ptr %arrayidx, i64 104
  store i32 %l2_size, ptr %l2_size21, align 8
  %cond = select i1 %flat, i64 %sectors, i64 %cluster_sectors
  %cluster_sectors24 = getelementptr inbounds nuw i8, ptr %arrayidx, i64 248
  store i64 %cond, ptr %cluster_sectors24, align 8
  %add25 = add nsw i64 %cluster_sectors, -1
  %sub = add i64 %add25, %call
  %sub26 = sub nsw i64 0, %cluster_sectors
  %and = and i64 %sub, %sub26
  %next_cluster_sector = getelementptr inbounds nuw i8, ptr %arrayidx, i64 256
  store i64 %and, ptr %next_cluster_sector, align 8
  %entry_size = getelementptr inbounds nuw i8, ptr %arrayidx, i64 32
  store i32 4, ptr %entry_size, align 8
  %7 = load i32, ptr %num_extents, align 4
  %cmp28 = icmp sgt i32 %7, 1
  br i1 %cmp28, label %if.then30, label %if.end36

if.then30:                                        ; preds = %if.end7
  %end_sector = getelementptr i8, ptr %arrayidx, i64 -224
  %8 = load i64, ptr %end_sector, align 8
  %add32 = add i64 %8, %sectors
  br label %if.end36

if.end36:                                         ; preds = %if.end7, %if.then30
  %sectors.sink = phi i64 [ %add32, %if.then30 ], [ %sectors, %if.end7 ]
  %9 = getelementptr inbounds nuw i8, ptr %arrayidx, i64 48
  store i64 %sectors.sink, ptr %9, align 8
  %total_sectors = getelementptr inbounds nuw i8, ptr %bs, i64 16888
  store i64 %sectors.sink, ptr %total_sectors, align 8
  store ptr %arrayidx, ptr %new_extent, align 8
  br label %return

return:                                           ; preds = %if.end36, %if.then6, %if.then2, %if.then
  %retval.0 = phi i32 [ -27, %if.then ], [ -27, %if.then2 ], [ %conv, %if.then6 ], [ 0, %if.end36 ]
  ret i32 %retval.0
}